; Function Attrs: mustprogress nounwind uwtable
define hidden void @_ZN4llvh11raw_ostreamD2Ev(ptr nocapture noundef nonnull align 8 dereferenceable(36) %this) unnamed_addr #0 align 2 {
entry:
  store ptr getelementptr inbounds ({ [13 x ptr] }, ptr @_ZTVN4llvh11raw_ostreamE, i64 0, i32 0, i64 2), ptr %this, align 8
  %BufferMode = getelementptr inbounds i8, ptr %this, i64 32
  %0 = load i32, ptr %BufferMode, align 8
  %cmp = icmp eq i32 %0, 1
  br i1 %cmp, label %if.then, label %if.end

if.then:                                          ; preds = %entry
  %OutBufStart = getelementptr inbounds i8, ptr %this, i64 8
  %1 = load ptr, ptr %OutBufStart, align 8
  %isnull = icmp eq ptr %1, null
  br i1 %isnull, label %if.end, label %delete.notnull

delete.notnull:                                   ; preds = %if.then
  tail call void @_ZdaPv(ptr noundef nonnull %1) #24
  br label %if.end

if.end:                                           ; preds = %if.then, %delete.notnull, %entry
  ret void
}